; Function Attrs: mustprogress uwtable
define noundef nonnull align 8 dereferenceable(40) ptr @_ZNK5arrow2io8Readable10io_contextEv(ptr nocapture nonnull readnone align 8 %this) unnamed_addr #0 align 2 personality ptr @__gxx_personality_v0 {
entry:
  %0 = load atomic i8, ptr @_ZGVZN5arrow2io18default_io_contextEvE20g_default_io_context acquire, align 8
  %guard.uninitialized.i = icmp eq i8 %0, 0
  br i1 %guard.uninitialized.i, label %init.check.i, label %_ZN5arrow2io18default_io_contextEv.exit, !prof !4

init.check.i:                                     ; preds = %entry
  %1 = tail call i32 @__cxa_guard_acquire(ptr nonnull @_ZGVZN5arrow2io18default_io_contextEvE20g_default_io_context) #28
  %tobool.not.i = icmp eq i32 %1, 0
  br i1 %tobool.not.i, label %_ZN5arrow2io18default_io_contextEv.exit, label %init.i

init.i:                                           ; preds = %init.check.i
  invoke void @_ZN5arrow2io9IOContextC2Ev(ptr noundef nonnull align 8 dereferenceable(40) @_ZZN5arrow2io18default_io_contextEvE20g_default_io_context)
          to label %invoke.cont.i unwind label %lpad.i

invoke.cont.i:                                    ; preds = %init.i
  %2 = tail call i32 @__cxa_atexit(ptr nonnull @_ZN5arrow2io9IOContextD2Ev, ptr nonnull @_ZZN5arrow2io18default_io_contextEvE20g_default_io_context, ptr nonnull @__dso_handle) #28
  tail call void @__cxa_guard_release(ptr nonnull @_ZGVZN5arrow2io18default_io_contextEvE20g_default_io_context) #28
  br label %_ZN5arrow2io18default_io_contextEv.exit

lpad.i:                                           ; preds = %init.i
  %3 = landingpad { ptr, i32 }
          cleanup
  tail call void @__cxa_guard_abort(ptr nonnull @_ZGVZN5arrow2io18default_io_contextEvE20g_default_io_context) #28
  resume { ptr, i32 } %3

_ZN5arrow2io18default_io_contextEv.exit:          ; preds = %entry, %init.check.i, %invoke.cont.i
  ret ptr @_ZZN5arrow2io18default_io_contextEvE20g_default_io_context
}